; Function Attrs: mustprogress nounwind uwtable
define hidden void @_ZN16G1PeriodicGCTask21check_for_periodic_gcEv(ptr nocapture noundef nonnull readnone align 8 dereferenceable(40) %0) local_unnamed_addr #0 align 2 {
  %2 = alloca %class.G1GCCounters, align 4
  %3 = load i64, ptr @G1PeriodicGCInterval, align 8
  %4 = icmp eq i64 %3, 0
  br i1 %4, label %16, label %5

5:                                                ; preds = %1
  %6 = load volatile ptr, ptr getelementptr inbounds (i8, ptr @_ZN16LogTagSetMappingILN6LogTag4typeE49ELS1_113ELS1_0ELS1_0ELS1_0ELS1_0EE7_tagsetE, i64 56), align 8
  %.not = icmp eq ptr %6, null
  br i1 %.not, label %8, label %7

7:                                                ; preds = %5
  tail call void (ptr, ...) @_ZN7LogImplILN6LogTag4typeE49ELS1_113ELS1_0ELS1_0ELS1_0ELS1_0EE5writeILN8LogLevel4typeE2EEEvPKcz(ptr noundef nonnull @.str.6)
  br label %8

8:                                                ; preds = %5, %7
  %9 = load ptr, ptr @_ZN8Universe14_collectedHeapE, align 8
  %10 = call noundef zeroext i1 @_ZN16G1PeriodicGCTask24should_start_periodic_gcEP15G1CollectedHeapP12G1GCCounters(ptr nonnull align 8 poison, ptr noundef %9, ptr noundef nonnull %2)
  br i1 %10, label %11, label %16

11:                                               ; preds = %8
  %12 = call noundef zeroext i1 @_ZN15G1CollectedHeap11try_collectEN7GCCause5CauseERK12G1GCCounters(ptr noundef nonnull align 8 dereferenceable(1488) %9, i32 noundef 22, ptr noundef nonnull align 4 dereferenceable(12) %2) #9
  br i1 %12, label %16, label %13

13:                                               ; preds = %11
  %14 = load volatile ptr, ptr getelementptr inbounds (i8, ptr @_ZN16LogTagSetMappingILN6LogTag4typeE49ELS1_113ELS1_0ELS1_0ELS1_0ELS1_0EE7_tagsetE, i64 56), align 8
  %.not3 = icmp eq ptr %14, null
  br i1 %.not3, label %16, label %15

15:                                               ; preds = %13
  call void (ptr, ...) @_ZN7LogImplILN6LogTag4typeE49ELS1_113ELS1_0ELS1_0ELS1_0ELS1_0EE5writeILN8LogLevel4typeE2EEEvPKcz(ptr noundef nonnull @.str.7)
  br label %16

16:                                               ; preds = %11, %13, %15, %1, %8
  ret void
}